target datalayout = "e-m:e-p270:32:32-p271:32:32-p272:64:64-i64:64-i128:128-f80:128-n8:16:32:64-S128"
target triple = "x86_64-pc-linux-gnu"

%struct._zend_executor_globals = type { %struct._zval_struct, %struct._zval_struct, [32 x ptr], ptr, ptr, %struct._zend_array, %struct._zend_array, ptr, i32, i32, ptr, ptr, ptr, ptr, ptr, ptr, i64, ptr, ptr, i32, i32, i64, i32, i32, i32, i8, i8, %struct.zend_atomic_bool_s, %struct.zend_atomic_bool_s, ptr, i64, ptr, ptr, %struct._zend_array, %struct._zend_array, i32, i8, %struct._zval_struct, %struct._zval_struct, %struct._zend_stack, %struct._zend_stack, %struct._zend_stack, ptr, i32, i32, i64, ptr, ptr, ptr, %struct._zend_objects_store, ptr, ptr, ptr, [3 x %struct._zend_op], ptr, i8, i8, i64, i32, i32, ptr, [16 x %struct._HashTableIterator], ptr, %union._zend_function, %struct._zend_op, %struct._zend_array, i64, %struct.zend_get_gc_buffer, ptr, ptr, ptr, i64, i8, i32, ptr, ptr, i64, %struct._zend_call_stack, i64, i64, [6 x ptr] }
%struct.zend_atomic_bool_s = type { i8 }
%struct._zval_struct = type { %union._zend_value, %union.anon, %union.anon.2 }
%union._zend_value = type { i64 }
%union.anon = type { i32 }
%union.anon.2 = type { i32 }
%struct._zend_stack = type { i32, i32, i32, ptr }
%struct._zend_objects_store = type { ptr, i32, i32, i32 }
%struct._HashTableIterator = type { ptr, i32, i32 }
%union._zend_function = type { %struct._zend_op_array }
%struct._zend_op_array = type { i8, [3 x i8], i32, ptr, ptr, ptr, i32, i32, ptr, ptr, ptr, ptr, i32, i32, i32, i32, ptr, ptr, ptr, ptr, ptr, i32, i32, ptr, ptr, ptr, i32, i32, i32, i32, ptr, ptr, [6 x ptr] }
%struct._zend_op = type { ptr, %union._znode_op, %union._znode_op, %union._znode_op, i32, i32, i8, i8, i8, i8 }
%union._znode_op = type { i32 }
%struct._zend_array = type { %struct._zend_refcounted_h, %union.anon.4, i32, %union.anon.6, i32, i32, i32, i32, i64, ptr }
%struct._zend_refcounted_h = type { i32, %union.anon.3 }
%union.anon.3 = type { i32 }
%union.anon.4 = type { i32 }
%union.anon.6 = type { ptr }
%struct.zend_get_gc_buffer = type { ptr, ptr, ptr }
%struct._zend_call_stack = type { ptr, i64 }
%struct._php_ps_globals = type { ptr, ptr, ptr, ptr, ptr, i64, ptr, ptr, ptr, i8, i8, ptr, ptr, ptr, i32, ptr, i32, i32, %struct._php_random_status_state_pcgoneseq128xslrr64, %struct._php_random_algo_with_state, i64, i64, i64, i64, %struct.anon.8, ptr, i8, i8, i8, i8, i8, i8, i8, i8, ptr, %struct._zval_struct, i64, i64, ptr, ptr, ptr, i64, double, i8, i8, i8, i8, i8, i8, ptr }
%struct._php_random_status_state_pcgoneseq128xslrr64 = type { i128 }
%struct._php_random_algo_with_state = type { ptr, ptr }
%struct.anon.8 = type { %struct._zval_struct, %struct._zval_struct, %struct._zval_struct, %struct._zval_struct, %struct._zval_struct, %struct._zval_struct, %struct._zval_struct, %struct._zval_struct, %struct._zval_struct }
%struct._zend_execute_data = type { ptr, ptr, ptr, ptr, %struct._zval_struct, ptr, ptr, ptr, ptr }
%struct.ps_module_struct = type { ptr, ptr, ptr, ptr, ptr, ptr, ptr, ptr, ptr, ptr }

@executor_globals = external global %struct._zend_executor_globals, align 8
@ps_globals = external global %struct._php_ps_globals, align 16
@.str.1 = private unnamed_addr constant [22 x i8] c"Session is not active\00", align 1
@.str.2 = private unnamed_addr constant [36 x i8] c"Cannot call default session handler\00", align 1
@.str.4 = private unnamed_addr constant [35 x i8] c"Parent session handler is not open\00", align 1
@.str.5 = private unnamed_addr constant [2 x i8] c"S\00", align 1

; Function Attrs: nounwind uwtable
define hidden void @zim_SessionHandler_destroy(ptr noundef %0, ptr noundef %1) #0 {
  %3 = alloca ptr, align 8
  %4 = alloca ptr, align 8
  %5 = alloca ptr, align 8
  store ptr %0, ptr %3, align 8
  store ptr %1, ptr %4, align 8
  %6 = load ptr, ptr %3, align 8
  %7 = getelementptr inbounds %struct._zend_execute_data, ptr %6, i32 0, i32 4
  %8 = getelementptr inbounds %struct._zval_struct, ptr %7, i32 0, i32 2
  %9 = load i32, ptr %8, align 4
  %10 = call i32 (i32, ptr, ...) @zend_parse_parameters(i32 noundef %9, ptr noundef @.str.5, ptr noundef %5)
  %11 = icmp eq i32 %10, -1
  br i1 %11, label %12, label %17

12:                                               ; preds = %2
  br label %13

13:                                               ; preds = %12
  %14 = load ptr, ptr getelementptr inbounds (%struct._zend_executor_globals, ptr @executor_globals, i32 0, i32 50), align 8
  %15 = icmp ne ptr %14, null
  call void @llvm.assume(i1 %15)
  br label %56

16:                                               ; No predecessors!
  br label %17

17:                                               ; preds = %16, %2
  %18 = load i32, ptr getelementptr inbounds (%struct._php_ps_globals, ptr @ps_globals, i32 0, i32 14), align 8
  %19 = icmp ne i32 %18, 2
  br i1 %19, label %20, label %25

20:                                               ; preds = %17
  call void (ptr, ptr, ...) @zend_throw_error(ptr noundef null, ptr noundef @.str.1)
  br label %21

21:                                               ; preds = %20
  %22 = load ptr, ptr getelementptr inbounds (%struct._zend_executor_globals, ptr @executor_globals, i32 0, i32 50), align 8
  %23 = icmp ne ptr %22, null
  call void @llvm.assume(i1 %23)
  br label %56

24:                                               ; No predecessors!
  br label %25

25:                                               ; preds = %24, %17
  %26 = load ptr, ptr getelementptr inbounds (%struct._php_ps_globals, ptr @ps_globals, i32 0, i32 12), align 8
  %27 = icmp eq ptr %26, null
  br i1 %27, label %28, label %33

28:                                               ; preds = %25
  call void (ptr, ptr, ...) @zend_throw_error(ptr noundef null, ptr noundef @.str.2)
  br label %29

29:                                               ; preds = %28
  %30 = load ptr, ptr getelementptr inbounds (%struct._zend_executor_globals, ptr @executor_globals, i32 0, i32 50), align 8
  %31 = icmp ne ptr %30, null
  call void @llvm.assume(i1 %31)
  br label %56

32:                                               ; No predecessors!
  br label %33

33:                                               ; preds = %32, %25
  %34 = load i8, ptr getelementptr inbounds (%struct._php_ps_globals, ptr @ps_globals, i32 0, i32 27), align 1
  %35 = trunc i8 %34 to i1
  br i1 %35, label %43, label %36

36:                                               ; preds = %33
  call void (ptr, i32, ptr, ...) @php_error_docref(ptr noundef null, i32 noundef 2, ptr noundef @.str.4)
  br label %37

37:                                               ; preds = %36
  br label %38

38:                                               ; preds = %37
  %39 = load ptr, ptr %4, align 8
  %40 = getelementptr inbounds %struct._zval_struct, ptr %39, i32 0, i32 1
  store i32 2, ptr %40, align 8
  br label %41

41:                                               ; preds = %38
  br label %56

42:                                               ; No predecessors!
  br label %43

43:                                               ; preds = %42, %33
  br label %44

44:                                               ; preds = %43
  br label %45

45:                                               ; preds = %44
  %46 = load ptr, ptr getelementptr inbounds (%struct._php_ps_globals, ptr @ps_globals, i32 0, i32 12), align 8
  %47 = getelementptr inbounds %struct.ps_module_struct, ptr %46, i32 0, i32 5
  %48 = load ptr, ptr %47, align 8
  %49 = load ptr, ptr %5, align 8
  %50 = call i32 %48(ptr noundef getelementptr inbounds (%struct._php_ps_globals, ptr @ps_globals, i32 0, i32 13), ptr noundef %49)
  %51 = icmp eq i32 0, %50
  %52 = select i1 %51, i32 3, i32 2
  %53 = load ptr, ptr %4, align 8
  %54 = getelementptr inbounds %struct._zval_struct, ptr %53, i32 0, i32 1
  store i32 %52, ptr %54, align 8
  br label %55

55:                                               ; preds = %45
  br label %56

56:                                               ; preds = %55, %41, %29, %21, %13
  ret void
}