; Function Attrs: nounwind uwtable
define hidden void @zim_SessionHandler_destroy(ptr nocapture noundef readonly %0, ptr nocapture noundef writeonly %1) local_unnamed_addr #0 {
  %3 = alloca ptr, align 8
  %4 = getelementptr inbounds i8, ptr %0, i64 44
  %5 = load i32, ptr %4, align 4
  %6 = call i32 (i32, ptr, ...) @zend_parse_parameters(i32 noundef %5, ptr noundef nonnull @.str.5, ptr noundef nonnull %3) #5
  %7 = icmp eq i32 %6, -1
  br i1 %7, label %8, label %11

8:                                                ; preds = %2
  %9 = load ptr, ptr getelementptr inbounds (%struct._zend_executor_globals, ptr @executor_globals, i64 0, i32 50), align 8
  %10 = icmp ne ptr %9, null
  call void @llvm.assume(i1 %10)
  br label %35

11:                                               ; preds = %2
  %12 = load i32, ptr getelementptr inbounds (%struct._php_ps_globals, ptr @ps_globals, i64 0, i32 14), align 8
  %.not = icmp eq i32 %12, 2
  br i1 %.not, label %16, label %13

13:                                               ; preds = %11
  call void (ptr, ptr, ...) @zend_throw_error(ptr noundef null, ptr noundef nonnull @.str.1) #5
  %14 = load ptr, ptr getelementptr inbounds (%struct._zend_executor_globals, ptr @executor_globals, i64 0, i32 50), align 8
  %15 = icmp ne ptr %14, null
  call void @llvm.assume(i1 %15)
  br label %35

16:                                               ; preds = %11
  %17 = load ptr, ptr getelementptr inbounds (%struct._php_ps_globals, ptr @ps_globals, i64 0, i32 12), align 8
  %18 = icmp eq ptr %17, null
  br i1 %18, label %19, label %22

19:                                               ; preds = %16
  call void (ptr, ptr, ...) @zend_throw_error(ptr noundef null, ptr noundef nonnull @.str.2) #5
  %20 = load ptr, ptr getelementptr inbounds (%struct._zend_executor_globals, ptr @executor_globals, i64 0, i32 50), align 8
  %21 = icmp ne ptr %20, null
  call void @llvm.assume(i1 %21)
  br label %35

22:                                               ; preds = %16
  %23 = load i8, ptr getelementptr inbounds (%struct._php_ps_globals, ptr @ps_globals, i64 0, i32 27), align 1
  %24 = and i8 %23, 1
  %.not3 = icmp eq i8 %24, 0
  br i1 %.not3, label %25, label %27

25:                                               ; preds = %22
  call void (ptr, i32, ptr, ...) @php_error_docref(ptr noundef null, i32 noundef 2, ptr noundef nonnull @.str.4) #5
  %26 = getelementptr inbounds i8, ptr %1, i64 8
  store i32 2, ptr %26, align 8
  br label %35

27:                                               ; preds = %22
  %28 = getelementptr inbounds i8, ptr %17, i64 40
  %29 = load ptr, ptr %28, align 8
  %30 = load ptr, ptr %3, align 8
  %31 = call i32 %29(ptr noundef nonnull getelementptr inbounds (%struct._php_ps_globals, ptr @ps_globals, i64 0, i32 13), ptr noundef %30) #5
  %32 = icmp eq i32 %31, 0
  %33 = select i1 %32, i32 3, i32 2
  %34 = getelementptr inbounds i8, ptr %1, i64 8
  store i32 %33, ptr %34, align 8
  br label %35

35:                                               ; preds = %27, %25, %19, %13, %8
  ret void
}